; Function Attrs: mustprogress nounwind uwtable
define dso_local void @_ZN5clang13ASTDeclReader25VisitFunctionTemplateDeclEPNS_20FunctionTemplateDeclE(ptr noundef nonnull align 8 dereferenceable(89) %0, ptr noundef %1) local_unnamed_addr #1 align 2 {
  %3 = alloca %"class.(anonymous namespace)::RedeclarableResult", align 8
  %4 = alloca %"class.llvm::SmallVector.1209", align 8
  call fastcc void @_ZN5clang13ASTDeclReader29VisitRedeclarableTemplateDeclEPNS_24RedeclarableTemplateDeclE(ptr dead_on_unwind noalias nonnull writable align 8 %3, ptr noundef nonnull align 8 dereferenceable(89) %0, ptr noundef %1)
  %5 = getelementptr inbounds nuw i8, ptr %0, i64 40
  %6 = getelementptr inbounds i8, ptr %3, i64 8
  %.val = load i64, ptr %6, align 8
  %7 = load i64, ptr %5, align 8
  %8 = icmp eq i64 %7, %.val
  br i1 %8, label %9, label %_ZN4llvm11SmallVectorIN5clang12GlobalDeclIDELj32EED2Ev.exit

9:                                                ; preds = %2
  %10 = getelementptr inbounds i8, ptr %4, i64 16
  call void @_ZN4llvm15SmallVectorBaseIjEC2EPvm(ptr noundef nonnull align 8 dereferenceable(16) %4, ptr noundef nonnull %10, i64 noundef 32) #26
  call void @_ZN5clang13ASTDeclReader14readDeclIDListERN4llvm15SmallVectorImplINS_12GlobalDeclIDEEE(ptr noundef nonnull align 8 dereferenceable(89) %0, ptr noundef nonnull align 8 dereferenceable(16) %4)
  call void @_ZN5clang13ASTDeclReader22AddLazySpecializationsINS_20FunctionTemplateDeclEEEvPT_RN4llvm15SmallVectorImplINS_12GlobalDeclIDEEE(ptr noundef %1, ptr noundef nonnull align 8 dereferenceable(16) %4)
  %11 = call noundef i64 @_ZNK4llvm15SmallVectorBaseIjE4sizeEv(ptr noundef nonnull align 8 dereferenceable(16) %4) #26
  %12 = load ptr, ptr %4, align 8
  %13 = icmp eq ptr %12, %10
  br i1 %13, label %_ZN4llvm11SmallVectorIN5clang12GlobalDeclIDELj32EED2Ev.exit, label %14

14:                                               ; preds = %9
  call void @free(ptr noundef %12) #26
  br label %_ZN4llvm11SmallVectorIN5clang12GlobalDeclIDELj32EED2Ev.exit

_ZN4llvm11SmallVectorIN5clang12GlobalDeclIDELj32EED2Ev.exit: ; preds = %14, %9, %2
  ret void
}